; Function Attrs: mustprogress uwtable
define void @_ZN6icu_7522TransliteratorRegistry13registerEntryERKNS_13UnicodeStringES3_S3_S3_PNS_19TransliteratorEntryEa(ptr noundef nonnull align 8 dereferenceable(312) %this, ptr noundef nonnull align 8 dereferenceable(64) %ID, ptr noundef nonnull align 8 dereferenceable(64) %source, ptr noundef nonnull align 8 dereferenceable(64) %target, ptr noundef nonnull align 8 dereferenceable(64) %variant, ptr noundef %adopted, i8 noundef signext %visible) local_unnamed_addr #1 align 2 personality ptr @__gxx_personality_v0 {
entry:
  %status = alloca i32, align 4
  store i32 0, ptr %status, align 4
  %registry = getelementptr inbounds i8, ptr %this, i64 8
  %0 = load ptr, ptr %registry, align 8
  %call.i = tail call noundef ptr @_ZN6icu_757UMemorynwEm(i64 noundef 64) #15
  %new.isnull.i = icmp eq ptr %call.i, null
  br i1 %new.isnull.i, label %_ZN6icu_759Hashtable3putERKNS_13UnicodeStringEPvR10UErrorCode.exit, label %new.notnull.i

new.notnull.i:                                    ; preds = %entry
  invoke void @_ZN6icu_7513UnicodeStringC1ERKS0_(ptr noundef nonnull align 8 dereferenceable(64) %call.i, ptr noundef nonnull align 8 dereferenceable(64) %ID)
          to label %_ZN6icu_759Hashtable3putERKNS_13UnicodeStringEPvR10UErrorCode.exit unwind label %lpad.i

common.resume:                                    ; preds = %lpad.i11, %lpad.i
  %common.resume.op = phi { ptr, i32 } [ %1, %lpad.i ], [ %4, %lpad.i11 ]
  resume { ptr, i32 } %common.resume.op

lpad.i:                                           ; preds = %new.notnull.i
  %1 = landingpad { ptr, i32 }
          cleanup
  tail call void @_ZN6icu_757UMemorydlEPv(ptr noundef nonnull %call.i) #15
  br label %common.resume

_ZN6icu_759Hashtable3putERKNS_13UnicodeStringEPvR10UErrorCode.exit: ; preds = %entry, %new.notnull.i
  %call2.i = call noundef ptr @uhash_put_75(ptr noundef %0, ptr noundef %call.i, ptr noundef %adopted, ptr noundef nonnull %status)
  %tobool.not = icmp eq i8 %visible, 0
  %availableIDs7 = getelementptr inbounds i8, ptr %this, i64 224
  br i1 %tobool.not, label %if.else, label %if.then

if.then:                                          ; preds = %_ZN6icu_759Hashtable3putERKNS_13UnicodeStringEPvR10UErrorCode.exit
  call void @_ZN6icu_7522TransliteratorRegistry11registerSTVERKNS_13UnicodeStringES3_S3_(ptr noundef nonnull align 8 dereferenceable(312) %this, ptr noundef nonnull align 8 dereferenceable(64) %source, ptr noundef nonnull align 8 dereferenceable(64) %target, ptr noundef nonnull align 8 dereferenceable(64) %variant)
  %2 = load ptr, ptr %availableIDs7, align 8
  %call.i7 = call noundef signext i8 @uhash_containsKey_75(ptr noundef %2, ptr noundef nonnull %ID)
  %tobool3.not = icmp eq i8 %call.i7, 0
  br i1 %tobool3.not, label %if.then4, label %if.end9

if.then4:                                         ; preds = %if.then
  %3 = load ptr, ptr %availableIDs7, align 8
  %call.i8 = call noundef ptr @_ZN6icu_757UMemorynwEm(i64 noundef 64) #15
  %new.isnull.i9 = icmp eq ptr %call.i8, null
  br i1 %new.isnull.i9, label %_ZN6icu_759Hashtable4putiERKNS_13UnicodeStringEiR10UErrorCode.exit, label %new.notnull.i10

new.notnull.i10:                                  ; preds = %if.then4
  invoke void @_ZN6icu_7513UnicodeStringC1ERKS0_(ptr noundef nonnull align 8 dereferenceable(64) %call.i8, ptr noundef nonnull align 8 dereferenceable(64) %ID)
          to label %_ZN6icu_759Hashtable4putiERKNS_13UnicodeStringEiR10UErrorCode.exit unwind label %lpad.i11

lpad.i11:                                         ; preds = %new.notnull.i10
  %4 = landingpad { ptr, i32 }
          cleanup
  call void @_ZN6icu_757UMemorydlEPv(ptr noundef nonnull %call.i8) #15
  br label %common.resume

_ZN6icu_759Hashtable4putiERKNS_13UnicodeStringEiR10UErrorCode.exit: ; preds = %if.then4, %new.notnull.i10
  %call2.i12 = call noundef i32 @uhash_puti_75(ptr noundef %3, ptr noundef %call.i8, i32 noundef 1, ptr noundef nonnull %status)
  br label %if.end9

if.else:                                          ; preds = %_ZN6icu_759Hashtable3putERKNS_13UnicodeStringEPvR10UErrorCode.exit
  call void @_ZN6icu_7522TransliteratorRegistry9removeSTVERKNS_13UnicodeStringES3_S3_(ptr noundef nonnull align 8 dereferenceable(312) %this, ptr noundef nonnull align 8 dereferenceable(64) %source, ptr noundef nonnull align 8 dereferenceable(64) %target, ptr noundef nonnull align 8 dereferenceable(64) %variant)
  %5 = load ptr, ptr %availableIDs7, align 8
  %call.i13 = call noundef ptr @uhash_remove_75(ptr noundef %5, ptr noundef nonnull %ID)
  br label %if.end9

if.end9:                                          ; preds = %if.then, %_ZN6icu_759Hashtable4putiERKNS_13UnicodeStringEiR10UErrorCode.exit, %if.else
  ret void
}